; Function Attrs: mustprogress uwtable
define dso_local noundef range(i64 0, 2) i64 @_ZNK4Luau7TypeIds5countEPKNS_4TypeE(ptr noundef nonnull readonly align 8 captures(none) dereferenceable(72) %0, ptr noundef %1) local_unnamed_addr #4 align 2 {
  %3 = tail call noundef ptr @_ZN4Luau6followEPKNS_4TypeE(ptr noundef %1)
  %4 = getelementptr inbounds nuw i8, ptr %0, i64 16
  %5 = load i64, ptr %4, align 8, !tbaa !43
  %6 = icmp eq i64 %5, 0
  br i1 %6, label %_ZNK4Luau12DenseHashMapIPKNS_4TypeEbNS_16DenseHashPointerESt8equal_toIS3_EE4findERKS3_.exit.thread, label %7

7:                                                ; preds = %2
  %8 = getelementptr inbounds nuw i8, ptr %0, i64 24
  %9 = load ptr, ptr %8, align 8, !tbaa !19
  %10 = icmp eq ptr %3, %9
  br i1 %10, label %_ZNK4Luau12DenseHashMapIPKNS_4TypeEbNS_16DenseHashPointerESt8equal_toIS3_EE4findERKS3_.exit.thread, label %11

11:                                               ; preds = %7
  %12 = getelementptr inbounds nuw i8, ptr %0, i64 8
  %13 = load i64, ptr %12, align 8, !tbaa !44
  %14 = add i64 %13, -1
  %15 = ptrtoint ptr %3 to i64
  %16 = lshr i64 %15, 4
  %17 = lshr i64 %15, 9
  %18 = xor i64 %16, %17
  %19 = load ptr, ptr %0, align 8, !tbaa !26
  br label %20

20:                                               ; preds = %26, %11
  %.pn.i.i = phi i64 [ %18, %11 ], [ %28, %26 ]
  %.02028.i.i = phi i64 [ 0, %11 ], [ %27, %26 ]
  %.02129.i.i = and i64 %.pn.i.i, %14
  %21 = getelementptr inbounds nuw %"struct.std::pair.344", ptr %19, i64 %.02129.i.i
  %22 = load ptr, ptr %21, align 8, !tbaa !19
  %23 = icmp eq ptr %22, %3
  br i1 %23, label %29, label %24

24:                                               ; preds = %20
  %25 = icmp eq ptr %22, %9
  br i1 %25, label %_ZNK4Luau12DenseHashMapIPKNS_4TypeEbNS_16DenseHashPointerESt8equal_toIS3_EE4findERKS3_.exit.thread, label %26

26:                                               ; preds = %24
  %27 = add i64 %.02028.i.i, 1
  %28 = add i64 %27, %.02129.i.i
  %.not.i.i = icmp ugt i64 %27, %14
  br i1 %.not.i.i, label %_ZNK4Luau12DenseHashMapIPKNS_4TypeEbNS_16DenseHashPointerESt8equal_toIS3_EE4findERKS3_.exit.thread, label %20, !llvm.loop !45

29:                                               ; preds = %20
  %30 = getelementptr inbounds nuw i8, ptr %21, i64 8
  %31 = load i8, ptr %30, align 1, !tbaa !32, !range !34, !noundef !35
  %32 = zext nneg i8 %31 to i64
  br label %_ZNK4Luau12DenseHashMapIPKNS_4TypeEbNS_16DenseHashPointerESt8equal_toIS3_EE4findERKS3_.exit.thread

_ZNK4Luau12DenseHashMapIPKNS_4TypeEbNS_16DenseHashPointerESt8equal_toIS3_EE4findERKS3_.exit.thread: ; preds = %24, %26, %7, %2, %29
  %33 = phi i64 [ %32, %29 ], [ 0, %2 ], [ 0, %7 ], [ 0, %26 ], [ 0, %24 ]
  ret i64 %33
}